target datalayout = "e-m:e-p270:32:32-p271:32:32-p272:64:64-i64:64-i128:128-f80:128-n8:16:32:64-S128"
target triple = "x86_64-pc-linux-gnu"

%struct.dsa_st = type { i32, i32, %struct.ffc_params_st, ptr, ptr, i32, ptr, %struct.CRYPTO_REF_COUNT, %struct.crypto_ex_data_st, ptr, ptr, ptr, ptr, i64 }
%struct.ffc_params_st = type { ptr, ptr, ptr, ptr, ptr, i64, i32, i32, i32, i32, i32, ptr, ptr, i32 }
%struct.CRYPTO_REF_COUNT = type { i32 }
%struct.crypto_ex_data_st = type { ptr, ptr }
%struct.evp_pkey_st = type { i32, i32, ptr, ptr, ptr, %union.legacy_pkey_st, %union.legacy_pkey_st, %struct.CRYPTO_REF_COUNT, ptr, ptr, i32, i8, %struct.crypto_ex_data_st, ptr, ptr, i64, ptr, i64, %struct.anon }
%union.legacy_pkey_st = type { ptr }
%struct.anon = type { i32, i32, i32 }

@.str.3 = private unnamed_addr constant [12 x i8] c"Private-Key\00", align 1
@.str.4 = private unnamed_addr constant [11 x i8] c"Public-Key\00", align 1
@.str.5 = private unnamed_addr constant [15 x i8] c"DSA-Parameters\00", align 1
@.str.6 = private unnamed_addr constant [14 x i8] c"%s: (%d bit)\0A\00", align 1
@.str.7 = private unnamed_addr constant [22 x i8] c"Public-Key: (%d bit)\0A\00", align 1
@.str.8 = private unnamed_addr constant [6 x i8] c"priv:\00", align 1
@.str.9 = private unnamed_addr constant [6 x i8] c"pub: \00", align 1

; Function Attrs: nounwind uwtable
define internal i32 @do_dsa_print(ptr noundef %0, ptr noundef %1, i32 noundef %2, i32 noundef %3) #0 {
  %5 = alloca ptr, align 8
  %6 = alloca ptr, align 8
  %7 = alloca i32, align 4
  %8 = alloca i32, align 4
  %9 = alloca i32, align 4
  %10 = alloca ptr, align 8
  %11 = alloca ptr, align 8
  %12 = alloca ptr, align 8
  %13 = alloca i32, align 4
  store ptr %0, ptr %5, align 8, !tbaa !50
  store ptr %1, ptr %6, align 8, !tbaa !12
  store i32 %2, ptr %7, align 4, !tbaa !16
  store i32 %3, ptr %8, align 4, !tbaa !16
  call void @llvm.lifetime.start.p0(i64 4, ptr %9) #3
  store i32 0, ptr %9, align 4, !tbaa !16
  call void @llvm.lifetime.start.p0(i64 8, ptr %10) #3
  store ptr null, ptr %10, align 8, !tbaa !23
  call void @llvm.lifetime.start.p0(i64 8, ptr %11) #3
  call void @llvm.lifetime.start.p0(i64 8, ptr %12) #3
  call void @llvm.lifetime.start.p0(i64 4, ptr %13) #3
  store i32 0, ptr %13, align 4, !tbaa !16
  %14 = load ptr, ptr %6, align 8, !tbaa !12
  %15 = getelementptr inbounds nuw %struct.dsa_st, ptr %14, i32 0, i32 2
  %16 = getelementptr inbounds nuw %struct.ffc_params_st, ptr %15, i32 0, i32 0
  %17 = load ptr, ptr %16, align 8, !tbaa !45
  %18 = icmp ne ptr %17, null
  br i1 %18, label %19, label %22

19:                                               ; preds = %4
  %20 = load ptr, ptr %6, align 8, !tbaa !12
  %21 = call i32 @DSA_bits(ptr noundef %20)
  store i32 %21, ptr %13, align 4, !tbaa !16
  br label %22

22:                                               ; preds = %19, %4
  %23 = load i32, ptr %8, align 4, !tbaa !16
  %24 = icmp eq i32 %23, 2
  br i1 %24, label %25, label %29

25:                                               ; preds = %22
  %26 = load ptr, ptr %6, align 8, !tbaa !12
  %27 = getelementptr inbounds nuw %struct.dsa_st, ptr %26, i32 0, i32 4
  %28 = load ptr, ptr %27, align 8, !tbaa !56
  store ptr %28, ptr %11, align 8, !tbaa !62
  br label %30

29:                                               ; preds = %22
  store ptr null, ptr %11, align 8, !tbaa !62
  br label %30

30:                                               ; preds = %29, %25
  %31 = load i32, ptr %8, align 4, !tbaa !16
  %32 = icmp sgt i32 %31, 0
  br i1 %32, label %33, label %37

33:                                               ; preds = %30
  %34 = load ptr, ptr %6, align 8, !tbaa !12
  %35 = getelementptr inbounds nuw %struct.dsa_st, ptr %34, i32 0, i32 3
  %36 = load ptr, ptr %35, align 8, !tbaa !25
  store ptr %36, ptr %12, align 8, !tbaa !62
  br label %38

37:                                               ; preds = %30
  store ptr null, ptr %12, align 8, !tbaa !62
  br label %38

38:                                               ; preds = %37, %33
  %39 = load i32, ptr %8, align 4, !tbaa !16
  %40 = icmp eq i32 %39, 2
  br i1 %40, label %41, label %42

41:                                               ; preds = %38
  store ptr @.str.3, ptr %10, align 8, !tbaa !23
  br label %48

42:                                               ; preds = %38
  %43 = load i32, ptr %8, align 4, !tbaa !16
  %44 = icmp eq i32 %43, 1
  br i1 %44, label %45, label %46

45:                                               ; preds = %42
  store ptr @.str.4, ptr %10, align 8, !tbaa !23
  br label %47

46:                                               ; preds = %42
  store ptr @.str.5, ptr %10, align 8, !tbaa !23
  br label %47

47:                                               ; preds = %46, %45
  br label %48

48:                                               ; preds = %47, %41
  %49 = load ptr, ptr %11, align 8, !tbaa !62
  %50 = icmp ne ptr %49, null
  br i1 %50, label %51, label %65

51:                                               ; preds = %48
  %52 = load ptr, ptr %5, align 8, !tbaa !50
  %53 = load i32, ptr %7, align 4, !tbaa !16
  %54 = call i32 @BIO_indent(ptr noundef %52, i32 noundef %53, i32 noundef 128)
  %55 = icmp ne i32 %54, 0
  br i1 %55, label %57, label %56

56:                                               ; preds = %51
  br label %95

57:                                               ; preds = %51
  %58 = load ptr, ptr %5, align 8, !tbaa !50
  %59 = load ptr, ptr %10, align 8, !tbaa !23
  %60 = load i32, ptr %13, align 4, !tbaa !16
  %61 = call i32 (ptr, ptr, ...) @BIO_printf(ptr noundef %58, ptr noundef @.str.6, ptr noundef %59, i32 noundef %60)
  %62 = icmp sle i32 %61, 0
  br i1 %62, label %63, label %64

63:                                               ; preds = %57
  br label %95

64:                                               ; preds = %57
  br label %72

65:                                               ; preds = %48
  %66 = load ptr, ptr %5, align 8, !tbaa !50
  %67 = load i32, ptr %13, align 4, !tbaa !16
  %68 = call i32 (ptr, ptr, ...) @BIO_printf(ptr noundef %66, ptr noundef @.str.7, i32 noundef %67)
  %69 = icmp sle i32 %68, 0
  br i1 %69, label %70, label %71

70:                                               ; preds = %65
  br label %95

71:                                               ; preds = %65
  br label %72

72:                                               ; preds = %71, %64
  %73 = load ptr, ptr %5, align 8, !tbaa !50
  %74 = load ptr, ptr %11, align 8, !tbaa !62
  %75 = load i32, ptr %7, align 4, !tbaa !16
  %76 = call i32 @ASN1_bn_print(ptr noundef %73, ptr noundef @.str.8, ptr noundef %74, ptr noundef null, i32 noundef %75)
  %77 = icmp ne i32 %76, 0
  br i1 %77, label %79, label %78

78:                                               ; preds = %72
  br label %95

79:                                               ; preds = %72
  %80 = load ptr, ptr %5, align 8, !tbaa !50
  %81 = load ptr, ptr %12, align 8, !tbaa !62
  %82 = load i32, ptr %7, align 4, !tbaa !16
  %83 = call i32 @ASN1_bn_print(ptr noundef %80, ptr noundef @.str.9, ptr noundef %81, ptr noundef null, i32 noundef %82)
  %84 = icmp ne i32 %83, 0
  br i1 %84, label %86, label %85

85:                                               ; preds = %79
  br label %95

86:                                               ; preds = %79
  %87 = load ptr, ptr %5, align 8, !tbaa !50
  %88 = load ptr, ptr %6, align 8, !tbaa !12
  %89 = getelementptr inbounds nuw %struct.dsa_st, ptr %88, i32 0, i32 2
  %90 = load i32, ptr %7, align 4, !tbaa !16
  %91 = call i32 @ossl_ffc_params_print(ptr noundef %87, ptr noundef %89, i32 noundef %90)
  %92 = icmp ne i32 %91, 0
  br i1 %92, label %94, label %93

93:                                               ; preds = %86
  br label %95

94:                                               ; preds = %86
  store i32 1, ptr %9, align 4, !tbaa !16
  br label %95

95:                                               ; preds = %94, %93, %85, %78, %70, %63, %56
  %96 = load i32, ptr %9, align 4, !tbaa !16
  call void @llvm.lifetime.end.p0(i64 4, ptr %13) #3
  call void @llvm.lifetime.end.p0(i64 8, ptr %12) #3
  call void @llvm.lifetime.end.p0(i64 8, ptr %11) #3
  call void @llvm.lifetime.end.p0(i64 8, ptr %10) #3
  call void @llvm.lifetime.end.p0(i64 4, ptr %9) #3
  ret i32 %96
}

; Function Attrs: nounwind uwtable
define internal i32 @dsa_param_print(ptr noundef %0, ptr noundef %1, i32 noundef %2, ptr noundef %3) #0 {
  %5 = alloca ptr, align 8
  %6 = alloca ptr, align 8
  %7 = alloca i32, align 4
  %8 = alloca ptr, align 8
  store ptr %0, ptr %5, align 8, !tbaa !50
  store ptr %1, ptr %6, align 8, !tbaa !3
  store i32 %2, ptr %7, align 4, !tbaa !16
  store ptr %3, ptr %8, align 8, !tbaa !52
  %9 = load ptr, ptr %5, align 8, !tbaa !50
  %10 = load ptr, ptr %6, align 8, !tbaa !3
  %11 = getelementptr inbounds nuw %struct.evp_pkey_st, ptr %10, i32 0, i32 5
  %12 = load ptr, ptr %11, align 8, !tbaa !37
  %13 = load i32, ptr %7, align 4, !tbaa !16
  %14 = call i32 @do_dsa_print(ptr noundef %9, ptr noundef %12, i32 noundef %13, i32 noundef 0)
  ret i32 %14
}